CCS PCM C Compiler, Version 5.008, 5967               09-Mar-22 11:33

               Filename:   C:\Users\Chary\Documents\Computer Science\06Mikroişlemcili Sistemler ve Laboratuvarları - Doç. Dr. Mustafa YAĞCI\Deney-3\main.lst

               ROM used:   92 words (1%)
                           Largest free fragment is 2048
               RAM used:   7 (2%) at main() level
                           7 (2%) worst case
               Stack used: 1 locations
               Stack size: 8

*
0000:  MOVLW  00
0001:  MOVWF  0A
0002:  GOTO   01A
0003:  NOP
.................... #include <16F877A.h> 
.................... //////// Standard Header file for the PIC16F877A device //////////////// 
.................... #device PIC16F877A 
.................... #list 
....................  
....................  
....................  
.................... #FUSES NOWDT,HS 
.................... #use delay(clock=20000000) 
0004:  MOVLW  21
0005:  MOVWF  04
0006:  BCF    03.7
0007:  MOVF   00,W
0008:  BTFSC  03.2
0009:  GOTO   017
000A:  MOVLW  06
000B:  MOVWF  78
000C:  CLRF   77
000D:  DECFSZ 77,F
000E:  GOTO   00D
000F:  DECFSZ 78,F
0010:  GOTO   00C
0011:  MOVLW  7B
0012:  MOVWF  77
0013:  DECFSZ 77,F
0014:  GOTO   013
0015:  DECFSZ 00,F
0016:  GOTO   00A
0017:  BCF    0A.3
0018:  BCF    0A.4
0019:  GOTO   034 (RETURN)
.................... int sayac = 0; 
....................  
.................... void main() 
001A:  MOVF   03,W
001B:  ANDLW  1F
001C:  MOVWF  03
001D:  CLRF   20
001E:  BSF    03.5
001F:  BSF    1F.0
0020:  BSF    1F.1
0021:  BSF    1F.2
0022:  BCF    1F.3
0023:  MOVLW  07
0024:  MOVWF  1C
0025:  BCF    03.7
.................... { 
....................     
....................     
....................    set_tris_b(0xFF); //PORTB tum pinler giris 
0026:  MOVLW  FF
0027:  MOVWF  06
....................    set_tris_d(0x00); //PORTD tum pinler cikis 
0028:  MOVLW  00
0029:  MOVWF  08
....................    output_b(0x00); 
002A:  CLRF   06
002B:  BCF    03.5
002C:  CLRF   06
....................    output_d(0x00); 
002D:  BSF    03.5
002E:  CLRF   08
002F:  BCF    03.5
0030:  CLRF   08
....................     
....................    while(true) 
....................    { 
....................       delay_ms(100); 
0031:  MOVLW  64
0032:  MOVWF  21
0033:  GOTO   004
....................        
....................        
....................       if(input(pin_b0) == 1) 
0034:  BSF    03.5
0035:  BSF    06.0
0036:  BCF    03.5
0037:  BTFSS  06.0
0038:  GOTO   03F
....................       { 
....................          while(input(pin_b0) == 1); 
0039:  BSF    03.5
003A:  BSF    06.0
003B:  BCF    03.5
003C:  BTFSC  06.0
003D:  GOTO   039
....................          sayac++;          
003E:  INCF   20,F
....................       } 
....................        
....................       if(sayac == 0) 
003F:  MOVF   20,F
0040:  BTFSS  03.2
0041:  GOTO   04A
....................       { 
....................          output_low(pin_d0); 
0042:  BSF    03.5
0043:  BCF    08.0
0044:  BCF    03.5
0045:  BCF    08.0
....................          output_low(pin_d2); 
0046:  BSF    03.5
0047:  BCF    08.2
0048:  BCF    03.5
0049:  BCF    08.2
....................       } 
....................       if(sayac == 3) 
004A:  MOVF   20,W
004B:  SUBLW  03
004C:  BTFSS  03.2
004D:  GOTO   056
....................       { 
....................          output_high(pin_d0); 
004E:  BSF    03.5
004F:  BCF    08.0
0050:  BCF    03.5
0051:  BSF    08.0
....................          output_high(pin_d2); 
0052:  BSF    03.5
0053:  BCF    08.2
0054:  BCF    03.5
0055:  BSF    08.2
....................       } 
....................       if(sayac >= 4) sayac = 0; 
0056:  MOVF   20,W
0057:  SUBLW  03
0058:  BTFSS  03.0
0059:  CLRF   20
005A:  GOTO   031
....................    } 
....................     
....................     
....................     
....................  
....................     
....................  
.................... } 
005B:  SLEEP

Configuration Fuses:
   Word  1: 3F72   HS NOWDT PUT BROWNOUT NOLVP NOCPD NOWRT NODEBUG NOPROTECT
